; Function Attrs: mustprogress nounwind uwtable
define void @_ZN5Ipopt15SymTMatrixSpaceD2Ev(ptr noundef nonnull align 8 captures(none) dereferenceable(40) initializes((0, 8)) %0) unnamed_addr #1 align 2 {
  store ptr getelementptr inbounds nuw inrange(-16, 32) (i8, ptr @_ZTVN5Ipopt15SymTMatrixSpaceE, i64 16), ptr %0, align 8, !tbaa !8
  %2 = getelementptr inbounds nuw i8, ptr %0, i64 24
  %3 = load ptr, ptr %2, align 8, !tbaa !39
  %4 = icmp eq ptr %3, null
  br i1 %4, label %6, label %5

5:                                                ; preds = %1
  tail call void @_ZdaPv(ptr noundef nonnull %3) #18
  br label %6

6:                                                ; preds = %5, %1
  %7 = getelementptr inbounds nuw i8, ptr %0, i64 32
  %8 = load ptr, ptr %7, align 8, !tbaa !40
  %9 = icmp eq ptr %8, null
  br i1 %9, label %11, label %10

10:                                               ; preds = %6
  tail call void @_ZdaPv(ptr noundef nonnull %8) #18
  br label %11

11:                                               ; preds = %10, %6
  store ptr getelementptr inbounds nuw inrange(-16, 16) (i8, ptr @_ZTVN5Ipopt16ReferencedObjectE, i64 16), ptr %0, align 8, !tbaa !8
  ret void
}